target datalayout = "e-m:e-p270:32:32-p271:32:32-p272:64:64-i64:64-i128:128-f80:128-n8:16:32:64-S128"
target triple = "x86_64-pc-linux-gnu"

%struct.expert_field = type { i32, i32 }

@hf_ldp_tlv_er_hop_loose = internal global i32 0, align 4
@hf_ldp_tlv_er_hop_prelen = internal global i32 0, align 4
@hf_ldp_tlv_er_hop_prefix6 = internal global i32 0, align 4
@ett_ldp_tlv_val = internal global i32 0, align 4
@ei_ldp_tlv_fec_len = internal global %struct.expert_field zeroinitializer, align 4
@.str.1077 = private unnamed_addr constant [61 x i8] c"Error processing ER HOP IPv6 TLV: length is %d, should be 20\00", align 1
@.str.1078 = private unnamed_addr constant [12 x i8] c"ER HOP IPv6\00", align 1

; Function Attrs: null_pointer_is_valid sspstrong uwtable
define internal void @dissect_tlv_er_hop_ipv6(ptr noundef %0, ptr noundef %1, i32 noundef %2, ptr noundef %3, i32 noundef %4) #0 {
  %6 = alloca ptr, align 8
  %7 = alloca ptr, align 8
  %8 = alloca i32, align 4
  %9 = alloca ptr, align 8
  %10 = alloca i32, align 4
  %11 = alloca ptr, align 8
  %12 = alloca i32, align 4
  store ptr %0, ptr %6, align 8
  store ptr %1, ptr %7, align 8
  store i32 %2, ptr %8, align 4
  store ptr %3, ptr %9, align 8
  store i32 %4, ptr %10, align 4
  call void @llvm.lifetime.start.p0(i64 8, ptr %11) #7
  %13 = load i32, ptr %10, align 4
  %14 = icmp ne i32 %13, 20
  br i1 %14, label %15, label %23

15:                                               ; preds = %5
  %16 = load ptr, ptr %9, align 8
  %17 = load ptr, ptr %7, align 8
  %18 = load ptr, ptr %6, align 8
  %19 = load i32, ptr %8, align 4
  %20 = load i32, ptr %10, align 4
  %21 = load i32, ptr %10, align 4
  %22 = call ptr (ptr, ptr, ptr, ptr, i32, i32, ptr, ...) @proto_tree_add_expert_format(ptr noundef %16, ptr noundef %17, ptr noundef @ei_ldp_tlv_fec_len, ptr noundef %18, i32 noundef %19, i32 noundef %20, ptr noundef @.str.1077, i32 noundef %21)
  store i32 1, ptr %12, align 4
  br label %53

23:                                               ; preds = %5
  %24 = load ptr, ptr %9, align 8
  %25 = load ptr, ptr %6, align 8
  %26 = load i32, ptr %8, align 4
  %27 = load i32, ptr %10, align 4
  %28 = load i32, ptr @ett_ldp_tlv_val, align 4
  %29 = call ptr @proto_tree_add_subtree(ptr noundef %24, ptr noundef %25, i32 noundef %26, i32 noundef %27, i32 noundef %28, ptr noundef null, ptr noundef @.str.1078)
  store ptr %29, ptr %11, align 8
  %30 = load ptr, ptr %11, align 8
  %31 = icmp ne ptr %30, null
  br i1 %31, label %32, label %52

32:                                               ; preds = %23
  %33 = load ptr, ptr %11, align 8
  %34 = load i32, ptr @hf_ldp_tlv_er_hop_loose, align 4
  %35 = load ptr, ptr %6, align 8
  %36 = load i32, ptr %8, align 4
  %37 = call ptr @proto_tree_add_item(ptr noundef %33, i32 noundef %34, ptr noundef %35, i32 noundef %36, i32 noundef 3, i32 noundef 0)
  %38 = load i32, ptr %8, align 4
  %39 = add i32 %38, 3
  store i32 %39, ptr %8, align 4
  %40 = load ptr, ptr %11, align 8
  %41 = load i32, ptr @hf_ldp_tlv_er_hop_prelen, align 4
  %42 = load ptr, ptr %6, align 8
  %43 = load i32, ptr %8, align 4
  %44 = call ptr @proto_tree_add_item(ptr noundef %40, i32 noundef %41, ptr noundef %42, i32 noundef %43, i32 noundef 1, i32 noundef 0)
  %45 = load i32, ptr %8, align 4
  %46 = add i32 %45, 1
  store i32 %46, ptr %8, align 4
  %47 = load ptr, ptr %11, align 8
  %48 = load i32, ptr @hf_ldp_tlv_er_hop_prefix6, align 4
  %49 = load ptr, ptr %6, align 8
  %50 = load i32, ptr %8, align 4
  %51 = call ptr @proto_tree_add_item(ptr noundef %47, i32 noundef %48, ptr noundef %49, i32 noundef %50, i32 noundef 16, i32 noundef 0)
  br label %52

52:                                               ; preds = %32, %23
  store i32 0, ptr %12, align 4
  br label %53

53:                                               ; preds = %52, %15
  call void @llvm.lifetime.end.p0(i64 8, ptr %11) #7
  %54 = load i32, ptr %12, align 4
  switch i32 %54, label %56 [
    i32 0, label %55
    i32 1, label %55
  ]

55:                                               ; preds = %53, %53
  ret void

56:                                               ; preds = %53
  unreachable
}